(lp0
S'sift_features/train/283.sift'
p1
aS'sift_features/train/383.sift'
p2
aS'sift_features/train/new-24.sift'
p3
aS'sift_features/train/414.sift'
p4
aS'sift_features/train/161.sift'
p5
aS'sift_features/train/493.sift'
p6
aS'sift_features/train/579.sift'
p7
aS'sift_features/train/180.sift'
p8
aS'sift_features/train/405.sift'
p9
aS'sift_features/train/437.sift'
p10
aS'sift_features/train/504.sift'
p11
aS'sift_features/train/227.sift'
p12
aS'sift_features/train/474.sift'
p13
aS'sift_features/train/606.sift'
p14
aS'sift_features/train/550.sift'
p15
aS'sift_features/train/210.sift'
p16
aS'sift_features/train/569.sift'
p17
aS'sift_features/train/478.sift'
p18
aS'sift_features/train/509.sift'
p19
aS'sift_features/train/491.sift'
p20
aS'sift_features/train/new-44.sift'
p21
aS'sift_features/train/202.sift'
p22
aS'sift_features/train/163.sift'
p23
aS'sift_features/train/329.sift'
p24
aS'sift_features/train/332.sift'
p25
aS'sift_features/train/204.sift'
p26
aS'sift_features/train/582.sift'
p27
aS'sift_features/train/348.sift'
p28
aS'sift_features/train/353.sift'
p29
aS'sift_features/train/331.sift'
p30
aS'sift_features/train/338.sift'
p31
aS'sift_features/train/350.sift'
p32
aS'sift_features/train/502.sift'
p33
aS'sift_features/train/413.sift'
p34
aS'sift_features/train/new-38.sift'
p35
aS'sift_features/train/380.sift'
p36
aS'sift_features/train/183.sift'
p37
aS'sift_features/train/552.sift'
p38
aS'sift_features/train/401.sift'
p39
aS'sift_features/train/166.sift'
p40
aS'sift_features/train/340.sift'
p41
aS'sift_features/train/119.sift'
p42
aS'sift_features/train/516.sift'
p43
aS'sift_features/train/398.sift'
p44
aS'sift_features/train/new-54.sift'
p45
aS'sift_features/train/187.sift'
p46
aS'sift_features/train/239.sift'
p47
aS'sift_features/train/424.sift'
p48
aS'sift_features/train/241.sift'
p49
aS'sift_features/train/185.sift'
p50
aS'sift_features/train/304.sift'
p51
aS'sift_features/train/301.sift'
p52
aS'sift_features/train/603.sift'
p53
aS'sift_features/train/308.sift'
p54
aS'sift_features/train/223.sift'
p55
aS'sift_features/train/416.sift'
p56
aS'sift_features/train/289.sift'
p57
aS'sift_features/train/361.sift'
p58
aS'sift_features/train/220.sift'
p59
aS'sift_features/train/114.sift'
p60
aS'sift_features/train/486.sift'
p61
aS'sift_features/train/548.sift'
p62
aS'sift_features/train/124.sift'
p63
aS'sift_features/train/409.sift'
p64
aS'sift_features/train/608.sift'
p65
aS'sift_features/train/224.sift'
p66
aS'sift_features/train/366.sift'
p67
aS'sift_features/train/336.sift'
p68
aS'sift_features/train/215.sift'
p69
aS'sift_features/train/154.sift'
p70
aS'sift_features/train/411.sift'
p71
aS'sift_features/train/311.sift'
p72
aS'sift_features/train/new-7.sift'
p73
aS'sift_features/train/570.sift'
p74
aS'sift_features/train/new-53.sift'
p75
aS'sift_features/train/466.sift'
p76
aS'sift_features/train/601.sift'
p77
aS'sift_features/train/246.sift'
p78
aS'sift_features/train/480.sift'
p79
aS'sift_features/train/584.sift'
p80
aS'sift_features/train/new-52.sift'
p81
aS'sift_features/train/new-23.sift'
p82
aS'sift_features/train/565.sift'
p83
aS'sift_features/train/128.sift'
p84
aS'sift_features/train/473.sift'
p85
aS'sift_features/train/158.sift'
p86
aS'sift_features/train/303.sift'
p87
aS'sift_features/train/347.sift'
p88
aS'sift_features/train/455.sift'
p89
aS'sift_features/train/211.sift'
p90
aS'sift_features/train/581.sift'
p91
aS'sift_features/train/513.sift'
p92
aS'sift_features/train/152.sift'
p93
aS'sift_features/train/510.sift'
p94
aS'sift_features/train/342.sift'
p95
aS'sift_features/train/540.sift'
p96
aS'sift_features/train/544.sift'
p97
aS'sift_features/train/256.sift'
p98
aS'sift_features/train/330.sift'
p99
aS'sift_features/train/248.sift'
p100
aS'sift_features/train/299.sift'
p101
aS'sift_features/train/335.sift'
p102
aS'sift_features/train/323.sift'
p103
aS'sift_features/train/new-48.sift'
p104
aS'sift_features/train/121.sift'
p105
aS'sift_features/train/519.sift'
p106
aS'sift_features/train/153.sift'
p107
aS'sift_features/train/171.sift'
p108
aS'sift_features/train/268.sift'
p109
aS'sift_features/train/138.sift'
p110
aS'sift_features/train/430.sift'
p111
aS'sift_features/train/538.sift'
p112
aS'sift_features/train/279.sift'
p113
aS'sift_features/train/188.sift'
p114
aS'sift_features/train/253.sift'
p115
aS'sift_features/train/251.sift'
p116
aS'sift_features/train/205.sift'
p117
aS'sift_features/train/389.sift'
p118
aS'sift_features/train/381.sift'
p119
aS'sift_features/train/203.sift'
p120
aS'sift_features/train/320.sift'
p121
aS'sift_features/train/new-47.sift'
p122
aS'sift_features/train/130.sift'
p123
aS'sift_features/train/605.sift'
p124
aS'sift_features/train/118.sift'
p125
aS'sift_features/train/589.sift'
p126
aS'sift_features/train/238.sift'
p127
aS'sift_features/train/208.sift'
p128
aS'sift_features/train/157.sift'
p129
aS'sift_features/train/406.sift'
p130
aS'sift_features/train/533.sift'
p131
aS'sift_features/train/560.sift'
p132
aS'sift_features/train/546.sift'
p133
aS'sift_features/train/222.sift'
p134
aS'sift_features/train/459.sift'
p135
aS'sift_features/train/447.sift'
p136
aS'sift_features/train/125.sift'
p137
aS'sift_features/train/150.sift'
p138
aS'sift_features/train/464.sift'
p139
aS'sift_features/train/356.sift'
p140
aS'sift_features/train/120.sift'
p141
aS'sift_features/train/259.sift'
p142
aS'sift_features/train/467.sift'
p143
aS'sift_features/train/232.sift'
p144
aS'sift_features/train/new-41.sift'
p145
aS'sift_features/train/444.sift'
p146
aS'sift_features/train/561.sift'
p147
aS'sift_features/train/306.sift'
p148
aS'sift_features/train/new-29.sift'
p149
aS'sift_features/train/345.sift'
p150
aS'sift_features/train/523.sift'
p151
aS'sift_features/train/521.sift'
p152
aS'sift_features/train/417.sift'
p153
aS'sift_features/train/new-56.sift'
p154
aS'sift_features/train/364.sift'
p155
aS'sift_features/train/277.sift'
p156
aS'sift_features/train/507.sift'
p157
aS'sift_features/train/388.sift'
p158
aS'sift_features/train/365.sift'
p159
aS'sift_features/train/501.sift'
p160
aS'sift_features/train/376.sift'
p161
aS'sift_features/train/270.sift'
p162
aS'sift_features/train/new-40.sift'
p163
aS'sift_features/train/216.sift'
p164
aS'sift_features/train/496.sift'
p165
aS'sift_features/train/346.sift'
p166
aS'sift_features/train/426.sift'
p167
aS'sift_features/train/new-55.sift'
p168
aS'sift_features/train/new-34.sift'
p169
aS'sift_features/train/362.sift'
p170
aS'sift_features/train/375.sift'
p171
aS'sift_features/train/100.sift'
p172
aS'sift_features/train/133.sift'
p173
aS'sift_features/train/506.sift'
p174
aS'sift_features/train/443.sift'
p175
aS'sift_features/train/276.sift'
p176
aS'sift_features/train/526.sift'
p177
aS'sift_features/train/new-19.sift'
p178
aS'sift_features/train/591.sift'
p179
aS'sift_features/train/134.sift'
p180
aS'sift_features/train/274.sift'
p181
aS'sift_features/train/470.sift'
p182
aS'sift_features/train/530.sift'
p183
aS'sift_features/train/378.sift'
p184
aS'sift_features/train/219.sift'
p185
aS'sift_features/train/195.sift'
p186
aS'sift_features/train/272.sift'
p187
aS'sift_features/train/522.sift'
p188
aS'sift_features/train/385.sift'
p189
aS'sift_features/train/156.sift'
p190
aS'sift_features/train/104.sift'
p191
aS'sift_features/train/457.sift'
p192
aS'sift_features/train/321.sift'
p193
aS'sift_features/train/177.sift'
p194
aS'sift_features/train/442.sift'
p195
aS'sift_features/train/new-49.sift'
p196
aS'sift_features/train/266.sift'
p197
aS'sift_features/train/new-35.sift'
p198
aS'sift_features/train/275.sift'
p199
aS'sift_features/train/551.sift'
p200
aS'sift_features/train/333.sift'
p201
aS'sift_features/train/127.sift'
p202
aS'sift_features/train/284.sift'
p203
aS'sift_features/train/481.sift'
p204
aS'sift_features/train/242.sift'
p205
aS'sift_features/train/111.sift'
p206
aS'sift_features/train/527.sift'
p207
aS'sift_features/train/290.sift'
p208
aS'sift_features/train/373.sift'
p209
aS'sift_features/train/458.sift'
p210
aS'sift_features/train/107.sift'
p211
aS'sift_features/train/339.sift'
p212
aS'sift_features/train/487.sift'
p213
aS'sift_features/train/583.sift'
p214
aS'sift_features/train/562.sift'
p215
aS'sift_features/train/126.sift'
p216
aS'sift_features/train/168.sift'
p217
aS'sift_features/train/436.sift'
p218
aS'sift_features/train/209.sift'
p219
aS'sift_features/train/439.sift'
p220
aS'sift_features/train/485.sift'
p221
aS'sift_features/train/600.sift'
p222
aS'sift_features/train/286.sift'
p223
aS'sift_features/train/new-50.sift'
p224
aS'sift_features/train/162.sift'
p225
aS'sift_features/train/new-14.sift'
p226
aS'sift_features/train/221.sift'
p227
aS'sift_features/train/285.sift'
p228
aS'sift_features/train/410.sift'
p229
aS'sift_features/train/174.sift'
p230
aS'sift_features/train/294.sift'
p231
aS'sift_features/train/316.sift'
p232
aS'sift_features/train/555.sift'
p233
aS'sift_features/train/244.sift'
p234
aS'sift_features/train/492.sift'
p235
aS'sift_features/train/112.sift'
p236
aS'sift_features/train/588.sift'
p237
aS'sift_features/train/529.sift'
p238
aS'sift_features/train/250.sift'
p239
aS'sift_features/train/607.sift'
p240
aS'sift_features/train/535.sift'
p241
aS'sift_features/train/407.sift'
p242
aS'sift_features/train/534.sift'
p243
aS'sift_features/train/230.sift'
p244
aS'sift_features/train/new-28.sift'
p245
aS'sift_features/train/341.sift'
p246
aS'sift_features/train/359.sift'
p247
aS'sift_features/train/new-21.sift'
p248
aS'sift_features/train/288.sift'
p249
aS'sift_features/train/594.sift'
p250
aS'sift_features/train/194.sift'
p251
aS'sift_features/train/572.sift'
p252
aS'sift_features/train/577.sift'
p253
aS'sift_features/train/391.sift'
p254
aS'sift_features/train/571.sift'
p255
aS'sift_features/train/new-58.sift'
p256
aS'sift_features/train/234.sift'
p257
aS'sift_features/train/387.sift'
p258
aS'sift_features/train/new-6.sift'
p259
aS'sift_features/train/543.sift'
p260
aS'sift_features/train/297.sift'
p261
aS'sift_features/train/427.sift'
p262
aS'sift_features/train/102.sift'
p263
aS'sift_features/train/564.sift'
p264
aS'sift_features/train/new-22.sift'
p265
aS'sift_features/train/225.sift'
p266
aS'sift_features/train/228.sift'
p267
aS'sift_features/train/563.sift'
p268
aS'sift_features/train/257.sift'
p269
aS'sift_features/train/483.sift'
p270
aS'sift_features/train/477.sift'
p271
aS'sift_features/train/new-4.sift'
p272
aS'sift_features/train/508.sift'
p273
aS'sift_features/train/new-2.sift'
p274
aS'sift_features/train/new-31.sift'
p275
aS'sift_features/train/247.sift'
p276
aS'sift_features/train/497.sift'
p277
aS'sift_features/train/new-25.sift'
p278
aS'sift_features/train/new-9.sift'
p279
aS'sift_features/train/423.sift'
p280
aS'sift_features/train/137.sift'
p281
aS'sift_features/train/131.sift'
p282
aS'sift_features/train/new-30.sift'
p283
aS'sift_features/train/515.sift'
p284
aS'sift_features/train/537.sift'
p285
aS'sift_features/train/302.sift'
p286
aS'sift_features/train/382.sift'
p287
aS'sift_features/train/386.sift'
p288
aS'sift_features/train/184.sift'
p289
aS'sift_features/train/434.sift'
p290
aS'sift_features/train/597.sift'
p291
aS'sift_features/train/312.sift'
p292
aS'sift_features/train/596.sift'
p293
aS'sift_features/train/352.sift'
p294
aS'sift_features/train/399.sift'
p295
aS'sift_features/train/518.sift'
p296
aS'sift_features/train/307.sift'
p297
aS'sift_features/train/357.sift'
p298
aS'sift_features/train/396.sift'
p299
aS'sift_features/train/122.sift'
p300
aS'sift_features/train/281.sift'
p301
aS'sift_features/train/415.sift'
p302
aS'sift_features/train/135.sift'
p303
aS'sift_features/train/395.sift'
p304
aS'sift_features/train/305.sift'
p305
aS'sift_features/train/450.sift'
p306
aS'sift_features/train/433.sift'
p307
aS'sift_features/train/360.sift'
p308
aS'sift_features/train/106.sift'
p309
aS'sift_features/train/484.sift'
p310
aS'sift_features/train/368.sift'
p311
aS'sift_features/train/271.sift'
p312
aS'sift_features/train/313.sift'
p313
aS'sift_features/train/237.sift'
p314
aS'sift_features/train/291.sift'
p315
aS'sift_features/train/151.sift'
p316
aS'sift_features/train/445.sift'
p317
aS'sift_features/train/520.sift'
p318
aS'sift_features/train/129.sift'
p319
aS'sift_features/train/300.sift'
p320
aS'sift_features/train/new-51.sift'
p321
aS'sift_features/train/528.sift'
p322
aS'sift_features/train/344.sift'
p323
aS'sift_features/train/421.sift'
p324
aS'sift_features/train/148.sift'
p325
aS'sift_features/train/173.sift'
p326
aS'sift_features/train/236.sift'
p327
aS'sift_features/train/103.sift'
p328
aS'sift_features/train/278.sift'
p329
aS'sift_features/train/140.sift'
p330
aS'sift_features/train/new-15.sift'
p331
aS'sift_features/train/182.sift'
p332
aS'sift_features/train/258.sift'
p333
aS'sift_features/train/207.sift'
p334
aS'sift_features/train/190.sift'
p335
aS'sift_features/train/178.sift'
p336
aS'sift_features/train/143.sift'
p337
aS'sift_features/train/542.sift'
p338
aS'sift_features/train/525.sift'
p339
aS'sift_features/train/438.sift'
p340
aS'sift_features/train/408.sift'
p341
aS'sift_features/train/541.sift'
p342
aS'sift_features/train/452.sift'
p343
aS'sift_features/train/186.sift'
p344
aS'sift_features/train/532.sift'
p345
aS'sift_features/train/263.sift'
p346
aS'sift_features/train/189.sift'
p347
aS'sift_features/train/539.sift'
p348
aS'sift_features/train/456.sift'
p349
aS'sift_features/train/370.sift'
p350
aS'sift_features/train/new-42.sift'
p351
aS'sift_features/train/575.sift'
p352
aS'sift_features/train/453.sift'
p353
aS'sift_features/train/146.sift'
p354
aS'sift_features/train/351.sift'
p355
aS'sift_features/train/451.sift'
p356
aS'sift_features/train/422.sift'
p357
aS'sift_features/train/428.sift'
p358
aS'sift_features/train/602.sift'
p359
aS'sift_features/train/488.sift'
p360
aS'sift_features/train/585.sift'
p361
aS'sift_features/train/136.sift'
p362
aS'sift_features/train/517.sift'
p363
aS'sift_features/train/402.sift'
p364
aS'sift_features/train/390.sift'
p365
aS'sift_features/train/377.sift'
p366
aS'sift_features/train/new-13.sift'
p367
aS'sift_features/train/327.sift'
p368
aS'sift_features/train/393.sift'
p369
aS'sift_features/train/505.sift'
p370
aS'sift_features/train/322.sift'
p371
aS'sift_features/train/514.sift'
p372
aS'sift_features/train/144.sift'
p373
aS'sift_features/train/262.sift'
p374
aS'sift_features/train/206.sift'
p375
aS'sift_features/train/198.sift'
p376
aS'sift_features/train/503.sift'
p377
aS'sift_features/train/214.sift'
p378
aS'sift_features/train/292.sift'
p379
aS'sift_features/train/105.sift'
p380
aS'sift_features/train/431.sift'
p381
aS'sift_features/train/new-45.sift'
p382
aS'sift_features/train/280.sift'
p383
aS'sift_features/train/440.sift'
p384
aS'sift_features/train/169.sift'
p385
aS'sift_features/train/441.sift'
p386
aS'sift_features/train/590.sift'
p387
aS'sift_features/train/576.sift'
p388
aS'sift_features/train/495.sift'
p389
aS'sift_features/train/429.sift'
p390
aS'sift_features/train/new-10.sift'
p391
aS'sift_features/train/549.sift'
p392
aS'sift_features/train/404.sift'
p393
aS'sift_features/train/392.sift'
p394
aS'sift_features/train/296.sift'
p395
aS'sift_features/train/574.sift'
p396
aS'sift_features/train/472.sift'
p397
aS'sift_features/train/212.sift'
p398
aS'sift_features/train/255.sift'
p399
aS'sift_features/train/545.sift'
p400
aS'sift_features/train/167.sift'
p401
aS'sift_features/train/201.sift'
p402
aS'sift_features/train/604.sift'
p403
aS'sift_features/train/new-0.sift'
p404
aS'sift_features/train/448.sift'
p405
aS'sift_features/train/260.sift'
p406
aS'sift_features/train/261.sift'
p407
aS'sift_features/train/252.sift'
p408
aS'sift_features/train/334.sift'
p409
aS'sift_features/train/489.sift'
p410
aS'sift_features/train/369.sift'
p411
aS'sift_features/train/394.sift'
p412
aS'sift_features/train/new-17.sift'
p413
aS'sift_features/train/454.sift'
p414
aS'sift_features/train/229.sift'
p415
aS'sift_features/train/354.sift'
p416
aS'sift_features/train/new-1.sift'
p417
aS'sift_features/train/new-20.sift'
p418
aS'sift_features/train/240.sift'
p419
aS'sift_features/train/new-16.sift'
p420
aS'sift_features/train/218.sift'
p421
aS'sift_features/train/139.sift'
p422
aS'sift_features/train/449.sift'
p423
aS'sift_features/train/243.sift'
p424
aS'sift_features/train/282.sift'
p425
aS'sift_features/train/468.sift'
p426
aS'sift_features/train/132.sift'
p427
aS'sift_features/train/314.sift'
p428
aS'sift_features/train/267.sift'
p429
aS'sift_features/train/511.sift'
p430
aS'sift_features/train/175.sift'
p431
aS'sift_features/train/310.sift'
p432
aS'sift_features/train/196.sift'
p433
aS'sift_features/train/191.sift'
p434
aS'sift_features/train/new-12.sift'
p435
aS'sift_features/train/479.sift'
p436
aS'sift_features/train/559.sift'
p437
aS'sift_features/train/318.sift'
p438
aS'sift_features/train/566.sift'
p439
aS'sift_features/train/598.sift'
p440
aS'sift_features/train/384.sift'
p441
aS'sift_features/train/326.sift'
p442
aS'sift_features/train/170.sift'
p443
aS'sift_features/train/197.sift'
p444
aS'sift_features/train/397.sift'
p445
aS'sift_features/train/110.sift'
p446
aS'sift_features/train/343.sift'
p447
aS'sift_features/train/420.sift'
p448
aS'sift_features/train/new-46.sift'
p449
aS'sift_features/train/593.sift'
p450
aS'sift_features/train/425.sift'
p451
aS'sift_features/train/155.sift'
p452
aS'sift_features/train/580.sift'
p453
aS'sift_features/train/new-26.sift'
p454
aS'sift_features/train/374.sift'
p455
aS'sift_features/train/new-5.sift'
p456
aS'sift_features/train/298.sift'
p457
aS'sift_features/train/176.sift'
p458
aS'sift_features/train/293.sift'
p459
aS'sift_features/train/200.sift'
p460
aS'sift_features/train/412.sift'
p461
aS'sift_features/train/463.sift'
p462
aS'sift_features/train/199.sift'
p463
aS'sift_features/train/115.sift'
p464
aS'sift_features/train/101.sift'
p465
aS'sift_features/train/new-57.sift'
p466
aS'sift_features/train/578.sift'
p467
aS'sift_features/train/254.sift'
p468
aS'sift_features/train/462.sift'
p469
aS'sift_features/train/147.sift'
p470
aS'sift_features/train/269.sift'
p471
aS'sift_features/train/328.sift'
p472
aS'sift_features/train/435.sift'
p473
aS'sift_features/train/363.sift'
p474
aS'sift_features/train/117.sift'
p475
aS'sift_features/train/476.sift'
p476
aS'sift_features/train/new-8.sift'
p477
aS'sift_features/train/new-32.sift'
p478
aS'sift_features/train/309.sift'
p479
aS'sift_features/train/419.sift'
p480
aS'sift_features/train/432.sift'
p481
aS'sift_features/train/460.sift'
p482
aS'sift_features/train/371.sift'
p483
aS'sift_features/train/500.sift'
p484
aS'sift_features/train/418.sift'
p485
aS'sift_features/train/142.sift'
p486
aS'sift_features/train/372.sift'
p487
aS'sift_features/train/556.sift'
p488
aS'sift_features/train/new-39.sift'
p489
aS'sift_features/train/226.sift'
p490
aS'sift_features/train/465.sift'
p491
aS'sift_features/train/461.sift'
p492
aS'sift_features/train/new-3.sift'
p493
aS'sift_features/train/new-18.sift'
p494
aS'sift_features/train/164.sift'
p495
aS'sift_features/train/379.sift'
p496
aS'sift_features/train/159.sift'
p497
aS'sift_features/train/553.sift'
p498
aS'sift_features/train/193.sift'
p499
aS'sift_features/train/287.sift'
p500
aS'sift_features/train/141.sift'
p501
aS'sift_features/train/573.sift'
p502
aS'sift_features/train/192.sift'
p503
aS'sift_features/train/536.sift'
p504
aS'sift_features/train/531.sift'
p505
aS'sift_features/train/108.sift'
p506
aS'sift_features/train/349.sift'
p507
aS'sift_features/train/355.sift'
p508
aS'sift_features/train/217.sift'
p509
aS'sift_features/train/554.sift'
p510
aS'sift_features/train/325.sift'
p511
aS'sift_features/train/315.sift'
p512
aS'sift_features/train/367.sift'
p513
aS'sift_features/train/475.sift'
p514
aS'sift_features/train/324.sift'
p515
aS'sift_features/train/new-33.sift'
p516
aS'sift_features/train/295.sift'
p517
aS'sift_features/train/599.sift'
p518
aS'sift_features/train/547.sift'
p519
aS'sift_features/train/490.sift'
p520
aS'sift_features/train/249.sift'
p521
aS'sift_features/train/337.sift'
p522
aS'sift_features/train/400.sift'
p523
aS'sift_features/train/524.sift'
p524
aS'sift_features/train/231.sift'
p525
aS'sift_features/train/471.sift'
p526
aS'sift_features/train/181.sift'
p527
aS'sift_features/train/498.sift'
p528
aS'sift_features/train/403.sift'
p529
aS'sift_features/train/264.sift'
p530
aS'sift_features/train/116.sift'
p531
aS'sift_features/train/568.sift'
p532
aS'sift_features/train/172.sift'
p533
aS'sift_features/train/233.sift'
p534
aS'sift_features/train/113.sift'
p535
aS'sift_features/train/265.sift'
p536
aS'sift_features/train/160.sift'
p537
aS'sift_features/train/558.sift'
p538
aS'sift_features/train/new-27.sift'
p539
aS'sift_features/train/595.sift'
p540
aS'sift_features/train/273.sift'
p541
aS'sift_features/train/482.sift'
p542
aS'sift_features/train/494.sift'
p543
aS'sift_features/train/567.sift'
p544
aS'sift_features/train/109.sift'
p545
aS'sift_features/train/512.sift'
p546
aS'sift_features/train/317.sift'
p547
aS'sift_features/train/499.sift'
p548
aS'sift_features/train/235.sift'
p549
aS'sift_features/train/557.sift'
p550
aS'sift_features/train/587.sift'
p551
aS'sift_features/train/319.sift'
p552
aS'sift_features/train/609.sift'
p553
aS'sift_features/train/592.sift'
p554
aS'sift_features/train/213.sift'
p555
aS'sift_features/train/446.sift'
p556
aS'sift_features/train/new-43.sift'
p557
a.